target datalayout = "e-m:e-p270:32:32-p271:32:32-p272:64:64-i64:64-i128:128-f80:128-n8:16:32:64-S128"
target triple = "x86_64-pc-linux-gnu"

@.str = private unnamed_addr constant [2 x i8] c" \00", align 1
@.str.1 = private unnamed_addr constant [2 x i8] c";\00", align 1

; Function Attrs: mustprogress uwtable
define void @_ZNK32pxrInternal_v0_24__pxrReserved__16HgiShaderSection16WriteDeclarationERSo(ptr noundef nonnull align 8 dereferenceable(160) %0, ptr noundef nonnull align 8 dereferenceable(8) %1) unnamed_addr #0 align 2 {
  %3 = alloca ptr, align 8
  %4 = alloca ptr, align 8
  store ptr %0, ptr %3, align 8
  store ptr %1, ptr %4, align 8
  %5 = load ptr, ptr %3, align 8
  %6 = load ptr, ptr %4, align 8
  %7 = load ptr, ptr %5, align 8
  %8 = getelementptr inbounds ptr, ptr %7, i64 2
  %9 = load ptr, ptr %8, align 8
  call void %9(ptr noundef nonnull align 8 dereferenceable(160) %5, ptr noundef nonnull align 8 dereferenceable(8) %6)
  %10 = load ptr, ptr %4, align 8
  %11 = call noundef nonnull align 8 dereferenceable(8) ptr @_ZStlsISt11char_traitsIcEERSt13basic_ostreamIcT_ES5_PKc(ptr noundef nonnull align 8 dereferenceable(8) %10, ptr noundef @.str)
  %12 = load ptr, ptr %4, align 8
  %13 = load ptr, ptr %5, align 8
  %14 = getelementptr inbounds ptr, ptr %13, i64 3
  %15 = load ptr, ptr %14, align 8
  call void %15(ptr noundef nonnull align 8 dereferenceable(160) %5, ptr noundef nonnull align 8 dereferenceable(8) %12)
  %16 = load ptr, ptr %4, align 8
  %17 = load ptr, ptr %5, align 8
  %18 = getelementptr inbounds ptr, ptr %17, i64 6
  %19 = load ptr, ptr %18, align 8
  call void %19(ptr noundef nonnull align 8 dereferenceable(160) %5, ptr noundef nonnull align 8 dereferenceable(8) %16)
  %20 = load ptr, ptr %4, align 8
  %21 = call noundef nonnull align 8 dereferenceable(8) ptr @_ZStlsISt11char_traitsIcEERSt13basic_ostreamIcT_ES5_PKc(ptr noundef nonnull align 8 dereferenceable(8) %20, ptr noundef @.str.1)
  ret void
}